target datalayout = "e-m:e-p270:32:32-p271:32:32-p272:64:64-i64:64-i128:128-f80:128-n8:16:32:64-S128"
target triple = "x86_64-pc-linux-gnu"

%struct.AVFilterContext = type { ptr, ptr, ptr, ptr, ptr, i32, ptr, ptr, i32, ptr, ptr, i32, i32, ptr, ptr, ptr, ptr, i32, ptr, i32, i32 }
%struct.ADerivativeContext = type { ptr, ptr, ptr }
%struct.AVFilterLink = type { ptr, ptr, ptr, ptr, i32, i32, i32, i32, %struct.AVRational, i32, i32, i32, %struct.AVChannelLayout, %struct.AVRational, ptr, i32, %struct.AVFilterFormatsConfig, %struct.AVFilterFormatsConfig }
%struct.AVChannelLayout = type { i32, i32, %union.anon.1, ptr }
%union.anon.1 = type { i64 }
%struct.AVRational = type { i32, i32 }
%struct.AVFilterFormatsConfig = type { ptr, ptr, ptr, ptr, ptr }
%struct.AVFrame = type { [8 x ptr], [8 x i32], ptr, i32, i32, i32, i32, i32, %struct.AVRational, i64, i64, %struct.AVRational, i32, ptr, i32, i32, [8 x ptr], ptr, i32, ptr, i32, i32, i32, i32, i32, i32, i32, i64, ptr, i32, ptr, ptr, i64, i64, i64, i64, ptr, %struct.AVChannelLayout, i64 }

; Function Attrs: nounwind uwtable
define internal i32 @filter_frame(ptr noundef %0, ptr noundef %1) #1 {
  %3 = alloca i32, align 4
  %4 = alloca ptr, align 8
  %5 = alloca ptr, align 8
  %6 = alloca ptr, align 8
  %7 = alloca ptr, align 8
  %8 = alloca ptr, align 8
  %9 = alloca ptr, align 8
  %10 = alloca i32, align 4
  store ptr %0, ptr %4, align 8, !tbaa !24
  store ptr %1, ptr %5, align 8, !tbaa !26
  call void @llvm.lifetime.start.p0(i64 8, ptr %6) #5
  %11 = load ptr, ptr %4, align 8, !tbaa !24
  %12 = getelementptr inbounds nuw %struct.AVFilterLink, ptr %11, i32 0, i32 2
  %13 = load ptr, ptr %12, align 8, !tbaa !28
  store ptr %13, ptr %6, align 8, !tbaa !4
  call void @llvm.lifetime.start.p0(i64 8, ptr %7) #5
  %14 = load ptr, ptr %6, align 8, !tbaa !4
  %15 = getelementptr inbounds nuw %struct.AVFilterContext, ptr %14, i32 0, i32 9
  %16 = load ptr, ptr %15, align 8, !tbaa !9
  store ptr %16, ptr %7, align 8, !tbaa !22
  call void @llvm.lifetime.start.p0(i64 8, ptr %8) #5
  %17 = load ptr, ptr %6, align 8, !tbaa !4
  %18 = getelementptr inbounds nuw %struct.AVFilterContext, ptr %17, i32 0, i32 7
  %19 = load ptr, ptr %18, align 8, !tbaa !36
  %20 = getelementptr inbounds ptr, ptr %19, i64 0
  %21 = load ptr, ptr %20, align 8, !tbaa !24
  store ptr %21, ptr %8, align 8, !tbaa !24
  call void @llvm.lifetime.start.p0(i64 8, ptr %9) #5
  %22 = load ptr, ptr %6, align 8, !tbaa !4
  %23 = getelementptr inbounds nuw %struct.AVFilterContext, ptr %22, i32 0, i32 17
  %24 = load i32, ptr %23, align 8, !tbaa !37
  %25 = icmp ne i32 %24, 0
  br i1 %25, label %26, label %53

26:                                               ; preds = %2
  %27 = load ptr, ptr %7, align 8, !tbaa !22
  %28 = getelementptr inbounds nuw %struct.ADerivativeContext, ptr %27, i32 0, i32 1
  %29 = load ptr, ptr %28, align 8, !tbaa !38
  %30 = icmp ne ptr %29, null
  br i1 %30, label %31, label %49

31:                                               ; preds = %26
  %32 = load ptr, ptr %7, align 8, !tbaa !22
  %33 = getelementptr inbounds nuw %struct.ADerivativeContext, ptr %32, i32 0, i32 1
  %34 = load ptr, ptr %33, align 8, !tbaa !38
  %35 = getelementptr inbounds nuw %struct.AVFrame, ptr %34, i32 0, i32 2
  %36 = load ptr, ptr %35, align 8, !tbaa !40
  %37 = load ptr, ptr %7, align 8, !tbaa !22
  %38 = getelementptr inbounds nuw %struct.ADerivativeContext, ptr %37, i32 0, i32 1
  %39 = load ptr, ptr %38, align 8, !tbaa !38
  %40 = getelementptr inbounds nuw %struct.AVFrame, ptr %39, i32 0, i32 37
  %41 = getelementptr inbounds nuw %struct.AVChannelLayout, ptr %40, i32 0, i32 1
  %42 = load i32, ptr %41, align 4, !tbaa !46
  %43 = load ptr, ptr %7, align 8, !tbaa !22
  %44 = getelementptr inbounds nuw %struct.ADerivativeContext, ptr %43, i32 0, i32 1
  %45 = load ptr, ptr %44, align 8, !tbaa !38
  %46 = getelementptr inbounds nuw %struct.AVFrame, ptr %45, i32 0, i32 6
  %47 = load i32, ptr %46, align 4, !tbaa !47
  %48 = call i32 @av_samples_set_silence(ptr noundef %36, i32 noundef 0, i32 noundef 1, i32 noundef %42, i32 noundef %47)
  br label %49

49:                                               ; preds = %31, %26
  %50 = load ptr, ptr %8, align 8, !tbaa !24
  %51 = load ptr, ptr %5, align 8, !tbaa !26
  %52 = call i32 @ff_filter_frame(ptr noundef %50, ptr noundef %51)
  store i32 %52, ptr %3, align 4
  store i32 1, ptr %10, align 4
  br label %106

53:                                               ; preds = %2
  %54 = load ptr, ptr %8, align 8, !tbaa !24
  %55 = load ptr, ptr %5, align 8, !tbaa !26
  %56 = getelementptr inbounds nuw %struct.AVFrame, ptr %55, i32 0, i32 5
  %57 = load i32, ptr %56, align 8, !tbaa !48
  %58 = call ptr @ff_get_audio_buffer(ptr noundef %54, i32 noundef %57)
  store ptr %58, ptr %9, align 8, !tbaa !26
  %59 = load ptr, ptr %9, align 8, !tbaa !26
  %60 = icmp ne ptr %59, null
  br i1 %60, label %62, label %61

61:                                               ; preds = %53
  call void @av_frame_free(ptr noundef %5)
  store i32 -12, ptr %3, align 4
  store i32 1, ptr %10, align 4
  br label %106

62:                                               ; preds = %53
  %63 = load ptr, ptr %9, align 8, !tbaa !26
  %64 = load ptr, ptr %5, align 8, !tbaa !26
  %65 = call i32 @av_frame_copy_props(ptr noundef %63, ptr noundef %64)
  %66 = load ptr, ptr %7, align 8, !tbaa !22
  %67 = getelementptr inbounds nuw %struct.ADerivativeContext, ptr %66, i32 0, i32 1
  %68 = load ptr, ptr %67, align 8, !tbaa !38
  %69 = icmp ne ptr %68, null
  br i1 %69, label %81, label %70

70:                                               ; preds = %62
  %71 = load ptr, ptr %4, align 8, !tbaa !24
  %72 = call ptr @ff_get_audio_buffer(ptr noundef %71, i32 noundef 1)
  %73 = load ptr, ptr %7, align 8, !tbaa !22
  %74 = getelementptr inbounds nuw %struct.ADerivativeContext, ptr %73, i32 0, i32 1
  store ptr %72, ptr %74, align 8, !tbaa !38
  %75 = load ptr, ptr %7, align 8, !tbaa !22
  %76 = getelementptr inbounds nuw %struct.ADerivativeContext, ptr %75, i32 0, i32 1
  %77 = load ptr, ptr %76, align 8, !tbaa !38
  %78 = icmp ne ptr %77, null
  br i1 %78, label %80, label %79

79:                                               ; preds = %70
  call void @av_frame_free(ptr noundef %5)
  call void @av_frame_free(ptr noundef %9)
  store i32 -12, ptr %3, align 4
  store i32 1, ptr %10, align 4
  br label %106

80:                                               ; preds = %70
  br label %81

81:                                               ; preds = %80, %62
  %82 = load ptr, ptr %7, align 8, !tbaa !22
  %83 = getelementptr inbounds nuw %struct.ADerivativeContext, ptr %82, i32 0, i32 2
  %84 = load ptr, ptr %83, align 8, !tbaa !49
  %85 = load ptr, ptr %9, align 8, !tbaa !26
  %86 = getelementptr inbounds nuw %struct.AVFrame, ptr %85, i32 0, i32 2
  %87 = load ptr, ptr %86, align 8, !tbaa !40
  %88 = load ptr, ptr %7, align 8, !tbaa !22
  %89 = getelementptr inbounds nuw %struct.ADerivativeContext, ptr %88, i32 0, i32 1
  %90 = load ptr, ptr %89, align 8, !tbaa !38
  %91 = getelementptr inbounds nuw %struct.AVFrame, ptr %90, i32 0, i32 2
  %92 = load ptr, ptr %91, align 8, !tbaa !40
  %93 = load ptr, ptr %5, align 8, !tbaa !26
  %94 = getelementptr inbounds nuw %struct.AVFrame, ptr %93, i32 0, i32 2
  %95 = load ptr, ptr %94, align 8, !tbaa !40
  %96 = load ptr, ptr %5, align 8, !tbaa !26
  %97 = getelementptr inbounds nuw %struct.AVFrame, ptr %96, i32 0, i32 5
  %98 = load i32, ptr %97, align 8, !tbaa !48
  %99 = load ptr, ptr %5, align 8, !tbaa !26
  %100 = getelementptr inbounds nuw %struct.AVFrame, ptr %99, i32 0, i32 37
  %101 = getelementptr inbounds nuw %struct.AVChannelLayout, ptr %100, i32 0, i32 1
  %102 = load i32, ptr %101, align 4, !tbaa !46
  call void %84(ptr noundef %87, ptr noundef %92, ptr noundef %95, i32 noundef %98, i32 noundef %102)
  call void @av_frame_free(ptr noundef %5)
  %103 = load ptr, ptr %8, align 8, !tbaa !24
  %104 = load ptr, ptr %9, align 8, !tbaa !26
  %105 = call i32 @ff_filter_frame(ptr noundef %103, ptr noundef %104)
  store i32 %105, ptr %3, align 4
  store i32 1, ptr %10, align 4
  br label %106

106:                                              ; preds = %81, %79, %61, %49
  call void @llvm.lifetime.end.p0(i64 8, ptr %9) #5
  call void @llvm.lifetime.end.p0(i64 8, ptr %8) #5
  call void @llvm.lifetime.end.p0(i64 8, ptr %7) #5
  call void @llvm.lifetime.end.p0(i64 8, ptr %6) #5
  %107 = load i32, ptr %3, align 4
  ret i32 %107
}