; Function Attrs: nounwind uwtable
define internal i32 @filter_frame(ptr noundef %0, ptr noundef %1) #1 {
  %3 = alloca ptr, align 8
  %4 = alloca ptr, align 8
  store ptr %1, ptr %3, align 8, !tbaa !20
  %5 = getelementptr inbounds nuw i8, ptr %0, i64 16
  %6 = load ptr, ptr %5, align 8, !tbaa !22
  %7 = getelementptr inbounds nuw i8, ptr %6, i64 72
  %8 = load ptr, ptr %7, align 8, !tbaa !4
  %9 = getelementptr inbounds nuw i8, ptr %6, i64 56
  %10 = load ptr, ptr %9, align 8, !tbaa !31
  %11 = load ptr, ptr %10, align 8, !tbaa !32
  call void @llvm.lifetime.start.p0(i64 8, ptr nonnull %4) #7
  %12 = getelementptr inbounds nuw i8, ptr %6, i64 128
  %13 = load i32, ptr %12, align 8, !tbaa !34
  %.not = icmp eq i32 %13, 0
  br i1 %.not, label %27, label %14

14:                                               ; preds = %2
  %15 = getelementptr inbounds nuw i8, ptr %8, i64 8
  %16 = load ptr, ptr %15, align 8, !tbaa !35
  %.not22 = icmp eq ptr %16, null
  br i1 %.not22, label %25, label %17

17:                                               ; preds = %14
  %18 = getelementptr inbounds nuw i8, ptr %16, i64 96
  %19 = load ptr, ptr %18, align 8, !tbaa !37
  %20 = getelementptr inbounds nuw i8, ptr %16, i64 388
  %21 = load i32, ptr %20, align 4, !tbaa !43
  %22 = getelementptr inbounds nuw i8, ptr %16, i64 116
  %23 = load i32, ptr %22, align 4, !tbaa !44
  %24 = tail call i32 @av_samples_set_silence(ptr noundef %19, i32 noundef 0, i32 noundef 1, i32 noundef %21, i32 noundef %23) #7
  br label %25

25:                                               ; preds = %17, %14
  %26 = tail call i32 @ff_filter_frame(ptr noundef %11, ptr noundef %1) #7
  br label %53

27:                                               ; preds = %2
  %28 = getelementptr inbounds nuw i8, ptr %1, i64 112
  %29 = load i32, ptr %28, align 8, !tbaa !45
  %30 = tail call ptr @ff_get_audio_buffer(ptr noundef %11, i32 noundef %29) #7
  store ptr %30, ptr %4, align 8, !tbaa !20
  %.not19 = icmp eq ptr %30, null
  br i1 %.not19, label %31, label %32

31:                                               ; preds = %27
  call void @av_frame_free(ptr noundef nonnull %3) #7
  br label %53

32:                                               ; preds = %27
  %33 = tail call i32 @av_frame_copy_props(ptr noundef nonnull %30, ptr noundef nonnull %1) #7
  %34 = getelementptr inbounds nuw i8, ptr %8, i64 8
  %35 = load ptr, ptr %34, align 8, !tbaa !35
  %.not20 = icmp eq ptr %35, null
  br i1 %.not20, label %36, label %39

36:                                               ; preds = %32
  %37 = tail call ptr @ff_get_audio_buffer(ptr noundef nonnull %0, i32 noundef 1) #7
  store ptr %37, ptr %34, align 8, !tbaa !35
  %.not21 = icmp eq ptr %37, null
  br i1 %.not21, label %38, label %39

38:                                               ; preds = %36
  call void @av_frame_free(ptr noundef nonnull %3) #7
  call void @av_frame_free(ptr noundef nonnull %4) #7
  br label %53

39:                                               ; preds = %36, %32
  %40 = phi ptr [ %37, %36 ], [ %35, %32 ]
  %41 = getelementptr inbounds nuw i8, ptr %8, i64 16
  %42 = load ptr, ptr %41, align 8, !tbaa !46
  %43 = getelementptr inbounds nuw i8, ptr %30, i64 96
  %44 = load ptr, ptr %43, align 8, !tbaa !37
  %45 = getelementptr inbounds nuw i8, ptr %40, i64 96
  %46 = load ptr, ptr %45, align 8, !tbaa !37
  %47 = getelementptr inbounds nuw i8, ptr %1, i64 96
  %48 = load ptr, ptr %47, align 8, !tbaa !37
  %49 = load i32, ptr %28, align 8, !tbaa !45
  %50 = getelementptr inbounds nuw i8, ptr %1, i64 388
  %51 = load i32, ptr %50, align 4, !tbaa !43
  tail call void %42(ptr noundef %44, ptr noundef %46, ptr noundef %48, i32 noundef %49, i32 noundef %51) #7
  call void @av_frame_free(ptr noundef nonnull %3) #7
  %52 = call i32 @ff_filter_frame(ptr noundef %11, ptr noundef nonnull %30) #7
  br label %53

53:                                               ; preds = %39, %38, %31, %25
  %.0 = phi i32 [ %26, %25 ], [ %52, %39 ], [ -12, %38 ], [ -12, %31 ]
  call void @llvm.lifetime.end.p0(i64 8, ptr nonnull %4) #7
  ret i32 %.0
}